target datalayout = "e-m:e-p270:32:32-p271:32:32-p272:64:64-i64:64-i128:128-f80:128-n8:16:32:64-S128"
target triple = "x86_64-pc-linux-gnu"

@.str.14 = private unnamed_addr constant [33 x i8] c"../openssl/test/quicfaultstest.c\00", align 1
@cert = internal global ptr null, align 8
@privkey = internal global ptr null, align 8
@.str.23 = private unnamed_addr constant [13 x i8] c"Hello World!\00", align 1
@.str.24 = private unnamed_addr constant [5 x i8] c"cctx\00", align 1
@.str.26 = private unnamed_addr constant [43 x i8] c"qtest_create_quic_connection(qtserv, cssl)\00", align 1
@.str.28 = private unnamed_addr constant [7 x i8] c"msglen\00", align 1
@.str.32 = private unnamed_addr constant [92 x i8] c"qtest_create_quic_objects(NULL, cctx, NULL, cert, privkey, 0, &qtserv, &cssl, &fault, NULL)\00", align 1
@.str.33 = private unnamed_addr constant [73 x i8] c"qtest_fault_set_packet_plain_listener(fault, add_unknown_frame_cb, NULL)\00", align 1
@.str.34 = private unnamed_addr constant [46 x i8] c"ossl_quic_tserver_stream_new(qtserv, 0, &sid)\00", align 1
@.str.35 = private unnamed_addr constant [4 x i8] c"sid\00", align 1
@.str.36 = private unnamed_addr constant [2 x i8] c"1\00", align 1
@.str.37 = private unnamed_addr constant [82 x i8] c"ossl_quic_tserver_write(qtserv, sid, (unsigned char *)msg, msglen, &byteswritten)\00", align 1
@.str.38 = private unnamed_addr constant [13 x i8] c"byteswritten\00", align 1
@.str.39 = private unnamed_addr constant [24 x i8] c"SSL_handle_events(cssl)\00", align 1
@.str.40 = private unnamed_addr constant [39 x i8] c"ret = SSL_read(cssl, buf, sizeof(buf))\00", align 1
@.str.41 = private unnamed_addr constant [2 x i8] c"0\00", align 1
@.str.42 = private unnamed_addr constant [25 x i8] c"SSL_get_error(cssl, ret)\00", align 1
@.str.43 = private unnamed_addr constant [14 x i8] c"SSL_ERROR_SSL\00", align 1
@.str.44 = private unnamed_addr constant [33 x i8] c"ERR_GET_REASON(ERR_peek_error())\00", align 1
@.str.45 = private unnamed_addr constant [26 x i8] c"SSL_R_QUIC_PROTOCOL_ERROR\00", align 1
@.str.46 = private unnamed_addr constant [46 x i8] c"qtest_check_server_frame_encoding_err(qtserv)\00", align 1

; Function Attrs: inlinehint nounwind uwtable
define internal i32 @ERR_GET_REASON(i64 noundef %0) #4 {
  %2 = alloca i32, align 4
  %3 = alloca i64, align 8
  store i64 %0, ptr %3, align 8, !tbaa !17
  %4 = load i64, ptr %3, align 8, !tbaa !17
  %5 = and i64 %4, 2147483648
  %6 = icmp ne i64 %5, 0
  br i1 %6, label %7, label %11

7:                                                ; preds = %1
  %8 = load i64, ptr %3, align 8, !tbaa !17
  %9 = and i64 %8, 2147483647
  %10 = trunc i64 %9 to i32
  store i32 %10, ptr %2, align 4
  br label %15

11:                                               ; preds = %1
  %12 = load i64, ptr %3, align 8, !tbaa !17
  %13 = and i64 %12, 8388607
  %14 = trunc i64 %13 to i32
  store i32 %14, ptr %2, align 4
  br label %15

15:                                               ; preds = %11, %7
  %16 = load i32, ptr %2, align 4
  ret i32 %16
}

; Function Attrs: nounwind uwtable
define internal i32 @test_unknown_frame() #0 {
  %1 = alloca i32, align 4
  %2 = alloca i32, align 4
  %3 = alloca ptr, align 8
  %4 = alloca ptr, align 8
  %5 = alloca ptr, align 8
  %6 = alloca ptr, align 8
  %7 = alloca i64, align 8
  %8 = alloca [80 x i8], align 16
  %9 = alloca i64, align 8
  %10 = alloca ptr, align 8
  %11 = alloca i64, align 8
  call void @llvm.lifetime.start.p0(i64 4, ptr %1) #6
  store i32 0, ptr %1, align 4, !tbaa !9
  call void @llvm.lifetime.start.p0(i64 4, ptr %2) #6
  call void @llvm.lifetime.start.p0(i64 8, ptr %3) #6
  %12 = call ptr @OSSL_QUIC_client_method()
  %13 = call ptr @SSL_CTX_new(ptr noundef %12)
  store ptr %13, ptr %3, align 8, !tbaa !11
  call void @llvm.lifetime.start.p0(i64 8, ptr %4) #6
  store ptr null, ptr %4, align 8, !tbaa !13
  call void @llvm.lifetime.start.p0(i64 8, ptr %5) #6
  store ptr null, ptr %5, align 8, !tbaa !15
  call void @llvm.lifetime.start.p0(i64 8, ptr %6) #6
  store ptr @.str.23, ptr %6, align 8, !tbaa !4
  call void @llvm.lifetime.start.p0(i64 8, ptr %7) #6
  %14 = load ptr, ptr %6, align 8, !tbaa !4
  %15 = call i64 @strlen(ptr noundef %14) #7
  store i64 %15, ptr %7, align 8, !tbaa !17
  call void @llvm.lifetime.start.p0(i64 80, ptr %8) #6
  call void @llvm.lifetime.start.p0(i64 8, ptr %9) #6
  call void @llvm.lifetime.start.p0(i64 8, ptr %10) #6
  store ptr null, ptr %10, align 8, !tbaa !19
  call void @llvm.lifetime.start.p0(i64 8, ptr %11) #6
  store i64 -1, ptr %11, align 8, !tbaa !17
  %16 = load ptr, ptr %3, align 8, !tbaa !11
  %17 = call i32 @test_ptr(ptr noundef @.str.14, i32 noundef 104, ptr noundef @.str.24, ptr noundef %16)
  %18 = icmp ne i32 %17, 0
  br i1 %18, label %20, label %19

19:                                               ; preds = %0
  br label %115

20:                                               ; preds = %0
  %21 = load ptr, ptr %3, align 8, !tbaa !11
  %22 = load ptr, ptr @cert, align 8, !tbaa !4
  %23 = load ptr, ptr @privkey, align 8, !tbaa !4
  %24 = call i32 @qtest_create_quic_objects(ptr noundef null, ptr noundef %21, ptr noundef null, ptr noundef %22, ptr noundef %23, i32 noundef 0, ptr noundef %4, ptr noundef %5, ptr noundef %10, ptr noundef null)
  %25 = icmp ne i32 %24, 0
  %26 = zext i1 %25 to i32
  %27 = call i32 @test_true(ptr noundef @.str.14, i32 noundef 108, ptr noundef @.str.32, i32 noundef %26)
  %28 = icmp ne i32 %27, 0
  br i1 %28, label %30, label %29

29:                                               ; preds = %20
  br label %115

30:                                               ; preds = %20
  %31 = load ptr, ptr %4, align 8, !tbaa !13
  %32 = load ptr, ptr %5, align 8, !tbaa !15
  %33 = call i32 @qtest_create_quic_connection(ptr noundef %31, ptr noundef %32)
  %34 = icmp ne i32 %33, 0
  %35 = zext i1 %34 to i32
  %36 = call i32 @test_true(ptr noundef @.str.14, i32 noundef 111, ptr noundef @.str.26, i32 noundef %35)
  %37 = icmp ne i32 %36, 0
  br i1 %37, label %39, label %38

38:                                               ; preds = %30
  br label %115

39:                                               ; preds = %30
  %40 = load ptr, ptr %10, align 8, !tbaa !19
  %41 = call i32 @qtest_fault_set_packet_plain_listener(ptr noundef %40, ptr noundef @add_unknown_frame_cb, ptr noundef null)
  %42 = icmp ne i32 %41, 0
  %43 = zext i1 %42 to i32
  %44 = call i32 @test_true(ptr noundef @.str.14, i32 noundef 120, ptr noundef @.str.33, i32 noundef %43)
  %45 = icmp ne i32 %44, 0
  br i1 %45, label %47, label %46

46:                                               ; preds = %39
  br label %115

47:                                               ; preds = %39
  %48 = load ptr, ptr %4, align 8, !tbaa !13
  %49 = call i32 @ossl_quic_tserver_stream_new(ptr noundef %48, i32 noundef 0, ptr noundef %11)
  %50 = icmp ne i32 %49, 0
  %51 = zext i1 %50 to i32
  %52 = call i32 @test_true(ptr noundef @.str.14, i32 noundef 123, ptr noundef @.str.34, i32 noundef %51)
  %53 = icmp ne i32 %52, 0
  br i1 %53, label %54, label %58

54:                                               ; preds = %47
  %55 = load i64, ptr %11, align 8, !tbaa !17
  %56 = call i32 @test_uint64_t_eq(ptr noundef @.str.14, i32 noundef 124, ptr noundef @.str.35, ptr noundef @.str.36, i64 noundef %55, i64 noundef 1)
  %57 = icmp ne i32 %56, 0
  br i1 %57, label %59, label %58

58:                                               ; preds = %54, %47
  br label %115

59:                                               ; preds = %54
  %60 = load ptr, ptr %4, align 8, !tbaa !13
  %61 = load i64, ptr %11, align 8, !tbaa !17
  %62 = load ptr, ptr %6, align 8, !tbaa !4
  %63 = load i64, ptr %7, align 8, !tbaa !17
  %64 = call i32 @ossl_quic_tserver_write(ptr noundef %60, i64 noundef %61, ptr noundef %62, i64 noundef %63, ptr noundef %9)
  %65 = icmp ne i32 %64, 0
  %66 = zext i1 %65 to i32
  %67 = call i32 @test_true(ptr noundef @.str.14, i32 noundef 128, ptr noundef @.str.37, i32 noundef %66)
  %68 = icmp ne i32 %67, 0
  br i1 %68, label %70, label %69

69:                                               ; preds = %59
  br label %115

70:                                               ; preds = %59
  %71 = load i64, ptr %7, align 8, !tbaa !17
  %72 = load i64, ptr %9, align 8, !tbaa !17
  %73 = call i32 @test_size_t_eq(ptr noundef @.str.14, i32 noundef 131, ptr noundef @.str.28, ptr noundef @.str.38, i64 noundef %71, i64 noundef %72)
  %74 = icmp ne i32 %73, 0
  br i1 %74, label %76, label %75

75:                                               ; preds = %70
  br label %115

76:                                               ; preds = %70
  %77 = load ptr, ptr %4, align 8, !tbaa !13
  %78 = call i32 @ossl_quic_tserver_tick(ptr noundef %77)
  %79 = load ptr, ptr %5, align 8, !tbaa !15
  %80 = call i32 @SSL_handle_events(ptr noundef %79)
  %81 = icmp ne i32 %80, 0
  %82 = zext i1 %81 to i32
  %83 = call i32 @test_true(ptr noundef @.str.14, i32 noundef 135, ptr noundef @.str.39, i32 noundef %82)
  %84 = icmp ne i32 %83, 0
  br i1 %84, label %86, label %85

85:                                               ; preds = %76
  br label %115

86:                                               ; preds = %76
  %87 = load ptr, ptr %5, align 8, !tbaa !15
  %88 = getelementptr inbounds [80 x i8], ptr %8, i64 0, i64 0
  %89 = call i32 @SSL_read(ptr noundef %87, ptr noundef %88, i32 noundef 80)
  store i32 %89, ptr %2, align 4, !tbaa !9
  %90 = call i32 @test_int_le(ptr noundef @.str.14, i32 noundef 138, ptr noundef @.str.40, ptr noundef @.str.41, i32 noundef %89, i32 noundef 0)
  %91 = icmp ne i32 %90, 0
  br i1 %91, label %93, label %92

92:                                               ; preds = %86
  br label %115

93:                                               ; preds = %86
  %94 = load ptr, ptr %5, align 8, !tbaa !15
  %95 = load i32, ptr %2, align 4, !tbaa !9
  %96 = call i32 @SSL_get_error(ptr noundef %94, i32 noundef %95)
  %97 = call i32 @test_int_eq(ptr noundef @.str.14, i32 noundef 141, ptr noundef @.str.42, ptr noundef @.str.43, i32 noundef %96, i32 noundef 1)
  %98 = icmp ne i32 %97, 0
  br i1 %98, label %100, label %99

99:                                               ; preds = %93
  br label %115

100:                                              ; preds = %93
  %101 = call i64 @ERR_peek_error()
  %102 = call i32 @ERR_GET_REASON(i64 noundef %101)
  %103 = call i32 @test_int_eq(ptr noundef @.str.14, i32 noundef 145, ptr noundef @.str.44, ptr noundef @.str.45, i32 noundef %102, i32 noundef 382)
  %104 = icmp ne i32 %103, 0
  br i1 %104, label %106, label %105

105:                                              ; preds = %100
  br label %115

106:                                              ; preds = %100
  %107 = load ptr, ptr %4, align 8, !tbaa !13
  %108 = call i32 @qtest_check_server_frame_encoding_err(ptr noundef %107)
  %109 = icmp ne i32 %108, 0
  %110 = zext i1 %109 to i32
  %111 = call i32 @test_true(ptr noundef @.str.14, i32 noundef 148, ptr noundef @.str.46, i32 noundef %110)
  %112 = icmp ne i32 %111, 0
  br i1 %112, label %114, label %113

113:                                              ; preds = %106
  br label %115

114:                                              ; preds = %106
  store i32 1, ptr %1, align 4, !tbaa !9
  br label %115

115:                                              ; preds = %114, %113, %105, %99, %92, %85, %75, %69, %58, %46, %38, %29, %19
  %116 = load ptr, ptr %10, align 8, !tbaa !19
  call void @qtest_fault_free(ptr noundef %116)
  %117 = load ptr, ptr %5, align 8, !tbaa !15
  call void @SSL_free(ptr noundef %117)
  %118 = load ptr, ptr %4, align 8, !tbaa !13
  call void @ossl_quic_tserver_free(ptr noundef %118)
  %119 = load ptr, ptr %3, align 8, !tbaa !11
  call void @SSL_CTX_free(ptr noundef %119)
  %120 = load i32, ptr %1, align 4, !tbaa !9
  call void @llvm.lifetime.end.p0(i64 8, ptr %11) #6
  call void @llvm.lifetime.end.p0(i64 8, ptr %10) #6
  call void @llvm.lifetime.end.p0(i64 8, ptr %9) #6
  call void @llvm.lifetime.end.p0(i64 80, ptr %8) #6
  call void @llvm.lifetime.end.p0(i64 8, ptr %7) #6
  call void @llvm.lifetime.end.p0(i64 8, ptr %6) #6
  call void @llvm.lifetime.end.p0(i64 8, ptr %5) #6
  call void @llvm.lifetime.end.p0(i64 8, ptr %4) #6
  call void @llvm.lifetime.end.p0(i64 8, ptr %3) #6
  call void @llvm.lifetime.end.p0(i64 4, ptr %2) #6
  call void @llvm.lifetime.end.p0(i64 4, ptr %1) #6
  ret i32 %120
}