; Function Attrs: nounwind uwtable
define internal range(i32 0, 2) i32 @test_unknown_frame() #1 {
  %1 = alloca ptr, align 8
  %2 = alloca ptr, align 8
  %3 = alloca [80 x i8], align 16
  %4 = alloca i64, align 8
  %5 = alloca ptr, align 8
  %6 = alloca i64, align 8
  %7 = tail call ptr @OSSL_QUIC_client_method() #4
  %8 = tail call ptr @SSL_CTX_new(ptr noundef %7) #4
  call void @llvm.lifetime.start.p0(i64 8, ptr nonnull %1) #4
  store ptr null, ptr %1, align 8, !tbaa !9
  call void @llvm.lifetime.start.p0(i64 8, ptr nonnull %2) #4
  store ptr null, ptr %2, align 8, !tbaa !11
  call void @llvm.lifetime.start.p0(i64 80, ptr nonnull %3) #4
  call void @llvm.lifetime.start.p0(i64 8, ptr nonnull %4) #4
  call void @llvm.lifetime.start.p0(i64 8, ptr nonnull %5) #4
  store ptr null, ptr %5, align 8, !tbaa !15
  call void @llvm.lifetime.start.p0(i64 8, ptr nonnull %6) #4
  store i64 -1, ptr %6, align 8, !tbaa !13
  %9 = tail call i32 @test_ptr(ptr noundef nonnull @.str.14, i32 noundef 104, ptr noundef nonnull @.str.24, ptr noundef %8) #4
  %.not = icmp eq i32 %9, 0
  br i1 %.not, label %76, label %10

10:                                               ; preds = %0
  %11 = load ptr, ptr @cert, align 8, !tbaa !4
  %12 = load ptr, ptr @privkey, align 8, !tbaa !4
  %13 = call i32 @qtest_create_quic_objects(ptr noundef null, ptr noundef %8, ptr noundef null, ptr noundef %11, ptr noundef %12, i32 noundef 0, ptr noundef nonnull %1, ptr noundef nonnull %2, ptr noundef nonnull %5, ptr noundef null) #4
  %14 = icmp ne i32 %13, 0
  %15 = zext i1 %14 to i32
  %16 = call i32 @test_true(ptr noundef nonnull @.str.14, i32 noundef 108, ptr noundef nonnull @.str.32, i32 noundef %15) #4
  %.not8 = icmp eq i32 %16, 0
  br i1 %.not8, label %76, label %17

17:                                               ; preds = %10
  %18 = load ptr, ptr %1, align 8, !tbaa !9
  %19 = load ptr, ptr %2, align 8, !tbaa !11
  %20 = call i32 @qtest_create_quic_connection(ptr noundef %18, ptr noundef %19) #4
  %21 = icmp ne i32 %20, 0
  %22 = zext i1 %21 to i32
  %23 = call i32 @test_true(ptr noundef nonnull @.str.14, i32 noundef 111, ptr noundef nonnull @.str.26, i32 noundef %22) #4
  %.not9 = icmp eq i32 %23, 0
  br i1 %.not9, label %76, label %24

24:                                               ; preds = %17
  %25 = load ptr, ptr %5, align 8, !tbaa !15
  %26 = call i32 @qtest_fault_set_packet_plain_listener(ptr noundef %25, ptr noundef nonnull @add_unknown_frame_cb, ptr noundef null) #4
  %27 = icmp ne i32 %26, 0
  %28 = zext i1 %27 to i32
  %29 = call i32 @test_true(ptr noundef nonnull @.str.14, i32 noundef 120, ptr noundef nonnull @.str.33, i32 noundef %28) #4
  %.not10 = icmp eq i32 %29, 0
  br i1 %.not10, label %76, label %30

30:                                               ; preds = %24
  %31 = load ptr, ptr %1, align 8, !tbaa !9
  %32 = call i32 @ossl_quic_tserver_stream_new(ptr noundef %31, i32 noundef 0, ptr noundef nonnull %6) #4
  %33 = icmp ne i32 %32, 0
  %34 = zext i1 %33 to i32
  %35 = call i32 @test_true(ptr noundef nonnull @.str.14, i32 noundef 123, ptr noundef nonnull @.str.34, i32 noundef %34) #4
  %.not11 = icmp eq i32 %35, 0
  br i1 %.not11, label %76, label %36

36:                                               ; preds = %30
  %37 = load i64, ptr %6, align 8, !tbaa !13
  %38 = call i32 @test_uint64_t_eq(ptr noundef nonnull @.str.14, i32 noundef 124, ptr noundef nonnull @.str.35, ptr noundef nonnull @.str.36, i64 noundef %37, i64 noundef 1) #4
  %.not12 = icmp eq i32 %38, 0
  br i1 %.not12, label %76, label %39

39:                                               ; preds = %36
  %40 = load ptr, ptr %1, align 8, !tbaa !9
  %41 = load i64, ptr %6, align 8, !tbaa !13
  %42 = call i32 @ossl_quic_tserver_write(ptr noundef %40, i64 noundef %41, ptr noundef nonnull @.str.23, i64 noundef 12, ptr noundef nonnull %4) #4
  %43 = icmp ne i32 %42, 0
  %44 = zext i1 %43 to i32
  %45 = call i32 @test_true(ptr noundef nonnull @.str.14, i32 noundef 128, ptr noundef nonnull @.str.37, i32 noundef %44) #4
  %.not13 = icmp eq i32 %45, 0
  br i1 %.not13, label %76, label %46

46:                                               ; preds = %39
  %47 = load i64, ptr %4, align 8, !tbaa !13
  %48 = call i32 @test_size_t_eq(ptr noundef nonnull @.str.14, i32 noundef 131, ptr noundef nonnull @.str.28, ptr noundef nonnull @.str.38, i64 noundef 12, i64 noundef %47) #4
  %.not14 = icmp eq i32 %48, 0
  br i1 %.not14, label %76, label %49

49:                                               ; preds = %46
  %50 = load ptr, ptr %1, align 8, !tbaa !9
  %51 = call i32 @ossl_quic_tserver_tick(ptr noundef %50) #4
  %52 = load ptr, ptr %2, align 8, !tbaa !11
  %53 = call i32 @SSL_handle_events(ptr noundef %52) #4
  %54 = icmp ne i32 %53, 0
  %55 = zext i1 %54 to i32
  %56 = call i32 @test_true(ptr noundef nonnull @.str.14, i32 noundef 135, ptr noundef nonnull @.str.39, i32 noundef %55) #4
  %.not15 = icmp eq i32 %56, 0
  br i1 %.not15, label %76, label %57

57:                                               ; preds = %49
  %58 = load ptr, ptr %2, align 8, !tbaa !11
  %59 = call i32 @SSL_read(ptr noundef %58, ptr noundef nonnull %3, i32 noundef 80) #4
  %60 = call i32 @test_int_le(ptr noundef nonnull @.str.14, i32 noundef 138, ptr noundef nonnull @.str.40, ptr noundef nonnull @.str.41, i32 noundef %59, i32 noundef 0) #4
  %.not16 = icmp eq i32 %60, 0
  br i1 %.not16, label %76, label %61

61:                                               ; preds = %57
  %62 = load ptr, ptr %2, align 8, !tbaa !11
  %63 = call i32 @SSL_get_error(ptr noundef %62, i32 noundef %59) #4
  %64 = call i32 @test_int_eq(ptr noundef nonnull @.str.14, i32 noundef 141, ptr noundef nonnull @.str.42, ptr noundef nonnull @.str.43, i32 noundef %63, i32 noundef 1) #4
  %.not17 = icmp eq i32 %64, 0
  br i1 %.not17, label %76, label %65

65:                                               ; preds = %61
  %66 = call i64 @ERR_peek_error() #4
  %67 = and i64 %66, 2147483648
  %.not.i = icmp eq i64 %67, 0
  %68 = trunc i64 %66 to i32
  %.0.v.i = select i1 %.not.i, i32 8388607, i32 2147483647
  %.0.i = and i32 %.0.v.i, %68
  %69 = call i32 @test_int_eq(ptr noundef nonnull @.str.14, i32 noundef 145, ptr noundef nonnull @.str.44, ptr noundef nonnull @.str.45, i32 noundef %.0.i, i32 noundef 382) #4
  %.not18 = icmp eq i32 %69, 0
  br i1 %.not18, label %76, label %70

70:                                               ; preds = %65
  %71 = load ptr, ptr %1, align 8, !tbaa !9
  %72 = call i32 @qtest_check_server_frame_encoding_err(ptr noundef %71) #4
  %73 = icmp ne i32 %72, 0
  %74 = zext i1 %73 to i32
  %75 = call i32 @test_true(ptr noundef nonnull @.str.14, i32 noundef 148, ptr noundef nonnull @.str.46, i32 noundef %74) #4
  %.not19 = icmp ne i32 %75, 0
  %spec.select = zext i1 %.not19 to i32
  br label %76

76:                                               ; preds = %70, %65, %61, %57, %49, %46, %39, %30, %36, %24, %17, %10, %0
  %.0 = phi i32 [ 0, %65 ], [ 0, %61 ], [ 0, %57 ], [ 0, %49 ], [ 0, %46 ], [ 0, %39 ], [ 0, %36 ], [ 0, %30 ], [ 0, %24 ], [ 0, %17 ], [ 0, %10 ], [ 0, %0 ], [ %spec.select, %70 ]
  %77 = load ptr, ptr %5, align 8, !tbaa !15
  call void @qtest_fault_free(ptr noundef %77) #4
  %78 = load ptr, ptr %2, align 8, !tbaa !11
  call void @SSL_free(ptr noundef %78) #4
  %79 = load ptr, ptr %1, align 8, !tbaa !9
  call void @ossl_quic_tserver_free(ptr noundef %79) #4
  call void @SSL_CTX_free(ptr noundef %8) #4
  call void @llvm.lifetime.end.p0(i64 8, ptr nonnull %6) #4
  call void @llvm.lifetime.end.p0(i64 8, ptr nonnull %5) #4
  call void @llvm.lifetime.end.p0(i64 8, ptr nonnull %4) #4
  call void @llvm.lifetime.end.p0(i64 80, ptr nonnull %3) #4
  call void @llvm.lifetime.end.p0(i64 8, ptr nonnull %2) #4
  call void @llvm.lifetime.end.p0(i64 8, ptr nonnull %1) #4
  ret i32 %.0
}